#include <math.h>
#include <stdio.h>
#include <stdlib.h>
#include <string.h>

int main()
{   int a[500];
    int i,j,n,ans;
	for(;scanf("%d",&a[0]),a[0]!=-1;)
	{
		for(n=1;scanf("%d",&a[n]),a[n]!=0;n++);
		ans=0;
		for(int i=0;i<n;i++)
			for(int j=0;j<n;j++) if (a[i]==a[j]*2) ans++;
		printf("%d\n",ans);
	}
	return 0;
}
	  
	
