; ModuleID = '12/1317.c'
source_filename = "12/1317.c"
target datalayout = "e-m:e-p270:32:32-p271:32:32-p272:64:64-i64:64-f80:128-n8:16:32:64-S128"
target triple = "x86_64-pc-linux-gnu"

@.str = private unnamed_addr constant [3 x i8] c"%d\00", align 1
@.str.1 = private unnamed_addr constant [4 x i8] c"%d\0A\00", align 1

; Function Attrs: noinline nounwind uwtable
define dso_local i32 @main() #0 {
  %1 = alloca i32, align 4
  %2 = alloca [500 x i32], align 16
  %3 = alloca i32, align 4
  %4 = alloca i32, align 4
  %5 = alloca i32, align 4
  %6 = alloca i32, align 4
  %7 = alloca i32, align 4
  %8 = alloca i32, align 4
  store i32 0, i32* %1, align 4
  br label %9

9:                                                ; preds = %62, %0
  %10 = getelementptr inbounds [500 x i32], [500 x i32]* %2, i64 0, i64 0
  %11 = call i32 (i8*, ...) @__isoc99_scanf(i8* getelementptr inbounds ([3 x i8], [3 x i8]* @.str, i64 0, i64 0), i32* %10)
  %12 = getelementptr inbounds [500 x i32], [500 x i32]* %2, i64 0, i64 0
  %13 = load i32, i32* %12, align 16
  %14 = icmp ne i32 %13, -1
  br i1 %14, label %15, label %65

15:                                               ; preds = %9
  store i32 1, i32* %5, align 4
  br label %16

16:                                               ; preds = %27, %15
  %17 = load i32, i32* %5, align 4
  %18 = sext i32 %17 to i64
  %19 = getelementptr inbounds [500 x i32], [500 x i32]* %2, i64 0, i64 %18
  %20 = call i32 (i8*, ...) @__isoc99_scanf(i8* getelementptr inbounds ([3 x i8], [3 x i8]* @.str, i64 0, i64 0), i32* %19)
  %21 = load i32, i32* %5, align 4
  %22 = sext i32 %21 to i64
  %23 = getelementptr inbounds [500 x i32], [500 x i32]* %2, i64 0, i64 %22
  %24 = load i32, i32* %23, align 4
  %25 = icmp ne i32 %24, 0
  br i1 %25, label %26, label %30

26:                                               ; preds = %16
  br label %27

27:                                               ; preds = %26
  %28 = load i32, i32* %5, align 4
  %29 = add nsw i32 %28, 1
  store i32 %29, i32* %5, align 4
  br label %16

30:                                               ; preds = %16
  store i32 0, i32* %6, align 4
  store i32 0, i32* %7, align 4
  br label %31

31:                                               ; preds = %59, %30
  %32 = load i32, i32* %7, align 4
  %33 = load i32, i32* %5, align 4
  %34 = icmp slt i32 %32, %33
  br i1 %34, label %35, label %62

35:                                               ; preds = %31
  store i32 0, i32* %8, align 4
  br label %36

36:                                               ; preds = %55, %35
  %37 = load i32, i32* %8, align 4
  %38 = load i32, i32* %5, align 4
  %39 = icmp slt i32 %37, %38
  br i1 %39, label %40, label %58

40:                                               ; preds = %36
  %41 = load i32, i32* %7, align 4
  %42 = sext i32 %41 to i64
  %43 = getelementptr inbounds [500 x i32], [500 x i32]* %2, i64 0, i64 %42
  %44 = load i32, i32* %43, align 4
  %45 = load i32, i32* %8, align 4
  %46 = sext i32 %45 to i64
  %47 = getelementptr inbounds [500 x i32], [500 x i32]* %2, i64 0, i64 %46
  %48 = load i32, i32* %47, align 4
  %49 = mul nsw i32 %48, 2
  %50 = icmp eq i32 %44, %49
  br i1 %50, label %51, label %54

51:                                               ; preds = %40
  %52 = load i32, i32* %6, align 4
  %53 = add nsw i32 %52, 1
  store i32 %53, i32* %6, align 4
  br label %54

54:                                               ; preds = %51, %40
  br label %55

55:                                               ; preds = %54
  %56 = load i32, i32* %8, align 4
  %57 = add nsw i32 %56, 1
  store i32 %57, i32* %8, align 4
  br label %36

58:                                               ; preds = %36
  br label %59

59:                                               ; preds = %58
  %60 = load i32, i32* %7, align 4
  %61 = add nsw i32 %60, 1
  store i32 %61, i32* %7, align 4
  br label %31

62:                                               ; preds = %31
  %63 = load i32, i32* %6, align 4
  %64 = call i32 (i8*, ...) @printf(i8* getelementptr inbounds ([4 x i8], [4 x i8]* @.str.1, i64 0, i64 0), i32 %63)
  br label %9

65:                                               ; preds = %9
  ret i32 0
}

declare dso_local i32 @__isoc99_scanf(i8*, ...) #1

declare dso_local i32 @printf(i8*, ...) #1


!llvm.module.flags = !{!0}
!llvm.ident = !{!1}

!0 = !{i32 1, !"wchar_size", i32 4}
!1 = !{!"clang version 10.0.0-4ubuntu1 "}
